target datalayout = "e-m:e-p270:32:32-p271:32:32-p272:64:64-i64:64-i128:128-f80:128-n8:16:32:64-S128"
target triple = "x86_64-pc-linux-gnu"

%"struct.faiss::FlatCodesDistanceComputer" = type { %"struct.faiss::DistanceComputer", ptr, i64 }
%"struct.faiss::DistanceComputer" = type { ptr }
%"struct.faiss::(anonymous namespace)::FlatIPDis" = type { %"struct.faiss::FlatCodesDistanceComputer", i64, i64, ptr, ptr, i64 }

; Function Attrs: mustprogress uwtable
define internal noundef float @_ZN5faiss12_GLOBAL__N_19FlatIPDis13symmetric_disEll(ptr noundef nonnull align 8 dereferenceable(64) %0, i64 noundef %1, i64 noundef %2) unnamed_addr #2 align 2 {
  %4 = alloca ptr, align 8
  %5 = alloca i64, align 8
  %6 = alloca i64, align 8
  store ptr %0, ptr %4, align 8, !tbaa !110
  store i64 %1, ptr %5, align 8, !tbaa !13
  store i64 %2, ptr %6, align 8, !tbaa !13
  %7 = load ptr, ptr %4, align 8
  %8 = getelementptr inbounds nuw %"struct.faiss::(anonymous namespace)::FlatIPDis", ptr %7, i32 0, i32 4
  %9 = load ptr, ptr %8, align 8, !tbaa !116
  %10 = load i64, ptr %6, align 8, !tbaa !13
  %11 = getelementptr inbounds nuw %"struct.faiss::(anonymous namespace)::FlatIPDis", ptr %7, i32 0, i32 1
  %12 = load i64, ptr %11, align 8, !tbaa !112
  %13 = mul i64 %10, %12
  %14 = getelementptr inbounds nuw float, ptr %9, i64 %13
  %15 = getelementptr inbounds nuw %"struct.faiss::(anonymous namespace)::FlatIPDis", ptr %7, i32 0, i32 4
  %16 = load ptr, ptr %15, align 8, !tbaa !116
  %17 = load i64, ptr %5, align 8, !tbaa !13
  %18 = getelementptr inbounds nuw %"struct.faiss::(anonymous namespace)::FlatIPDis", ptr %7, i32 0, i32 1
  %19 = load i64, ptr %18, align 8, !tbaa !112
  %20 = mul i64 %17, %19
  %21 = getelementptr inbounds nuw float, ptr %16, i64 %20
  %22 = getelementptr inbounds nuw %"struct.faiss::(anonymous namespace)::FlatIPDis", ptr %7, i32 0, i32 1
  %23 = load i64, ptr %22, align 8, !tbaa !112
  %24 = call noundef float @_ZN5faiss18fvec_inner_productEPKfS1_m(ptr noundef %14, ptr noundef %21, i64 noundef %23)
  ret float %24
}