; Function Attrs: mustprogress uwtable
define internal noundef float @_ZN5faiss12_GLOBAL__N_19FlatIPDis13symmetric_disEll(ptr noundef nonnull readonly align 8 captures(none) dereferenceable(64) %0, i64 noundef %1, i64 noundef %2) unnamed_addr #2 align 2 {
  %4 = getelementptr inbounds nuw i8, ptr %0, i64 48
  %5 = load ptr, ptr %4, align 8, !tbaa !63
  %6 = getelementptr inbounds nuw i8, ptr %0, i64 24
  %7 = load i64, ptr %6, align 8, !tbaa !59
  %8 = mul i64 %7, %2
  %9 = getelementptr inbounds nuw float, ptr %5, i64 %8
  %10 = mul i64 %7, %1
  %11 = getelementptr inbounds nuw float, ptr %5, i64 %10
  %12 = tail call noundef float @_ZN5faiss18fvec_inner_productEPKfS1_m(ptr noundef %9, ptr noundef %11, i64 noundef %7)
  ret float %12
}